; Function Attrs: nounwind uwtable
define hidden i32 @aom_rb_read_uvlc(ptr noundef captures(none) %0) local_unnamed_addr #1 {
  %2 = getelementptr inbounds nuw i8, ptr %0, i64 16
  %3 = getelementptr inbounds nuw i8, ptr %0, i64 8
  %4 = getelementptr inbounds nuw i8, ptr %0, i64 32
  %5 = getelementptr inbounds nuw i8, ptr %0, i64 24
  br label %6

6:                                                ; preds = %1, %aom_rb_read_bit.exit.thread
  %.0916 = phi i32 [ 0, %1 ], [ %25, %aom_rb_read_bit.exit.thread ]
  %7 = load i32, ptr %2, align 8
  %8 = lshr i32 %7, 3
  %9 = load ptr, ptr %0, align 8
  %10 = zext nneg i32 %8 to i64
  %11 = getelementptr inbounds nuw i8, ptr %9, i64 %10
  %12 = load ptr, ptr %3, align 8
  %13 = icmp ult ptr %11, %12
  br i1 %13, label %aom_rb_read_bit.exit, label %14

14:                                               ; preds = %6
  %15 = load ptr, ptr %4, align 8
  %.not.i = icmp eq ptr %15, null
  br i1 %.not.i, label %aom_rb_read_bit.exit.thread, label %16

16:                                               ; preds = %14
  %17 = load ptr, ptr %5, align 8
  tail call void %15(ptr noundef %17) #3
  br label %aom_rb_read_bit.exit.thread

aom_rb_read_bit.exit:                             ; preds = %6
  %18 = and i32 %7, 7
  %19 = xor i32 %18, 7
  %20 = load i8, ptr %11, align 1
  %21 = zext i8 %20 to i32
  %22 = add i32 %7, 1
  store i32 %22, ptr %2, align 8
  %23 = shl nuw nsw i32 1, %19
  %24 = and i32 %23, %21
  %.not = icmp eq i32 %24, 0
  br i1 %.not, label %aom_rb_read_bit.exit.thread, label %.critedge.thread

aom_rb_read_bit.exit.thread:                      ; preds = %14, %16, %aom_rb_read_bit.exit
  %25 = add nuw nsw i32 %.0916, 1
  %exitcond.not = icmp eq i32 %25, 32
  br i1 %exitcond.not, label %.critedge, label %6, !llvm.loop !7

.critedge.thread:                                 ; preds = %aom_rb_read_bit.exit
  %notmask = shl nsw i32 -1, %.0916
  %26 = xor i32 %notmask, -1
  %.not13 = icmp eq i32 %.0916, 0
  br i1 %.not13, label %aom_rb_read_literal.exit, label %.lr.ph.i

.lr.ph.i:                                         ; preds = %.critedge.thread, %aom_rb_read_bit.exit.i
  %.0.in8.i = phi i32 [ %.0.i10, %aom_rb_read_bit.exit.i ], [ %.0916, %.critedge.thread ]
  %.067.i = phi i32 [ %47, %aom_rb_read_bit.exit.i ], [ 0, %.critedge.thread ]
  %.0.i10 = add nsw i32 %.0.in8.i, -1
  %27 = load i32, ptr %2, align 8
  %28 = lshr i32 %27, 3
  %29 = load ptr, ptr %0, align 8
  %30 = zext nneg i32 %28 to i64
  %31 = getelementptr inbounds nuw i8, ptr %29, i64 %30
  %32 = load ptr, ptr %3, align 8
  %33 = icmp ult ptr %31, %32
  br i1 %33, label %34, label %42

34:                                               ; preds = %.lr.ph.i
  %35 = and i32 %27, 7
  %36 = xor i32 %35, 7
  %37 = load i8, ptr %31, align 1
  %38 = zext i8 %37 to i32
  %39 = lshr i32 %38, %36
  %40 = and i32 %39, 1
  %41 = add i32 %27, 1
  store i32 %41, ptr %2, align 8
  br label %aom_rb_read_bit.exit.i

42:                                               ; preds = %.lr.ph.i
  %43 = load ptr, ptr %4, align 8
  %.not.i.i = icmp eq ptr %43, null
  br i1 %.not.i.i, label %aom_rb_read_bit.exit.i, label %44

44:                                               ; preds = %42
  %45 = load ptr, ptr %5, align 8
  tail call void %43(ptr noundef %45) #3
  br label %aom_rb_read_bit.exit.i

aom_rb_read_bit.exit.i:                           ; preds = %44, %42, %34
  %.0.i.i = phi i32 [ %40, %34 ], [ 0, %44 ], [ 0, %42 ]
  %46 = shl nuw i32 %.0.i.i, %.0.i10
  %47 = or i32 %46, %.067.i
  %48 = icmp samesign ugt i32 %.0.in8.i, 1
  br i1 %48, label %.lr.ph.i, label %aom_rb_read_literal.exit, !llvm.loop !4

aom_rb_read_literal.exit:                         ; preds = %aom_rb_read_bit.exit.i, %.critedge.thread
  %.06.lcssa.i = phi i32 [ 0, %.critedge.thread ], [ %47, %aom_rb_read_bit.exit.i ]
  %49 = add i32 %.06.lcssa.i, %26
  br label %.critedge

.critedge:                                        ; preds = %aom_rb_read_bit.exit.thread, %aom_rb_read_literal.exit
  %.0 = phi i32 [ %49, %aom_rb_read_literal.exit ], [ -1, %aom_rb_read_bit.exit.thread ]
  ret i32 %.0
}